target datalayout = "e-m:e-p270:32:32-p271:32:32-p272:64:64-i64:64-i128:128-f80:128-n8:16:32:64-S128"
target triple = "x86_64-pc-linux-gnu"

%struct.pmix_list_t = type { %struct.pmix_object_t, %struct.pmix_list_item_t, i64 }
%struct.pmix_object_t = type { %union.pthread_mutex_t, ptr, i32, %struct.pmix_tma }
%union.pthread_mutex_t = type { %struct.__pthread_mutex_s }
%struct.__pthread_mutex_s = type { i32, i32, i32, i32, i32, i16, i16, %struct.__pthread_internal_list }
%struct.__pthread_internal_list = type { ptr, ptr }
%struct.pmix_tma = type { ptr, ptr, ptr, ptr, ptr, ptr, ptr, ptr }
%struct.pmix_list_item_t = type { %struct.pmix_object_t, ptr, ptr, i32 }
%struct.pmix_output_desc_t = type { i8, i8, i32, i8, i32, ptr, ptr, i32, ptr, i32, i8, i8, i8, i8, ptr, i32, i32 }
%struct.pmix_proc = type { [256 x i8], i32 }
%struct.pmix_server_globals_t = type { i8, i32, i32, %struct.pmix_pointer_array_t, %struct.pmix_pointer_array_t, i32, i8, %struct.pmix_proc, %struct.pmix_list_t, i8, i8, i8, i8, i8, %struct.pmix_proc, i8, ptr, ptr, i64, %struct.pmix_list_t, %struct.pmix_list_t, %struct.pmix_list_t }
%struct.pmix_pointer_array_t = type { %struct.pmix_object_t, i32, i32, i32, i32, i32, ptr, ptr }
%struct.prte_rml_base_t = type { i32, i32, i32, i32, %struct.pmix_list_t, %struct.pmix_list_t, i32, %struct.pmix_list_t, i32, i8 }

@pmix_output_info = external global [0 x %struct.pmix_output_desc_t], align 8
@.str.15 = private unnamed_addr constant [22 x i8] c"base/state_base_fns.c\00", align 1
@prte_pmix_server_globals = external global %struct.pmix_server_globals_t, align 8
@.str.18 = private unnamed_addr constant [37 x i8] c"PMIX ERROR: %s in file %s at line %d\00", align 1
@prte_rml_base = external global %struct.prte_rml_base_t, align 8
@.str.19 = private unnamed_addr constant [26 x i8] c"RML-SEND(%s:%d): %s:%s:%d\00", align 1
@__func__.prte_state_base_notify_data_server = private unnamed_addr constant [35 x i8] c"prte_state_base_notify_data_server\00", align 1

; Function Attrs: nounwind uwtable
define void @prte_state_base_notify_data_server(ptr noundef %0) #0 {
  %2 = alloca ptr, align 8
  %3 = alloca ptr, align 8
  %4 = alloca i32, align 4
  %5 = alloca i32, align 4
  %6 = alloca i8, align 1
  %7 = alloca i32, align 4
  store ptr %0, ptr %2, align 8, !tbaa !78
  call void @llvm.lifetime.start.p0(i64 8, ptr %3) #13
  call void @llvm.lifetime.start.p0(i64 4, ptr %4) #13
  call void @llvm.lifetime.start.p0(i64 4, ptr %5) #13
  store i32 -1, ptr %5, align 4, !tbaa !7
  call void @llvm.lifetime.start.p0(i64 1, ptr %6) #13
  store i8 4, ptr %6, align 1, !tbaa !82
  %8 = call zeroext i1 @PMIx_Nspace_invalid(ptr noundef getelementptr inbounds nuw (%struct.pmix_server_globals_t, ptr @prte_pmix_server_globals, i32 0, i32 7))
  br i1 %8, label %9, label %10

9:                                                ; preds = %1
  store i32 1, ptr %7, align 4
  br label %101

10:                                               ; preds = %1
  %11 = call ptr @PMIx_Data_buffer_create()
  store ptr %11, ptr %3, align 8, !tbaa !108
  %12 = load ptr, ptr %3, align 8, !tbaa !108
  %13 = call i32 @PMIx_Data_pack(ptr noundef null, ptr noundef %12, ptr noundef %5, i32 noundef 1, i16 noundef zeroext 6)
  store i32 %13, ptr %4, align 4, !tbaa !7
  %14 = load i32, ptr %4, align 4, !tbaa !7
  %15 = icmp ne i32 0, %14
  br i1 %15, label %16, label %30

16:                                               ; preds = %10
  br label %17

17:                                               ; preds = %16
  %18 = load i32, ptr %4, align 4, !tbaa !7
  %19 = icmp ne i32 -2, %18
  br i1 %19, label %20, label %23

20:                                               ; preds = %17
  %21 = load i32, ptr %4, align 4, !tbaa !7
  %22 = call ptr @PMIx_Error_string(i32 noundef %21)
  call void (i32, ptr, ...) @pmix_output(i32 noundef 0, ptr noundef @.str.18, ptr noundef %22, ptr noundef @.str.15, i32 noundef 387)
  br label %23

23:                                               ; preds = %20, %17
  br label %24

24:                                               ; preds = %23
  br label %25

25:                                               ; preds = %24
  br label %26

26:                                               ; preds = %25
  %27 = load ptr, ptr %3, align 8, !tbaa !108
  call void @PMIx_Data_buffer_release(ptr noundef %27)
  store ptr null, ptr %3, align 8, !tbaa !108
  br label %28

28:                                               ; preds = %26
  br label %29

29:                                               ; preds = %28
  store i32 1, ptr %7, align 4
  br label %101

30:                                               ; preds = %10
  %31 = load ptr, ptr %3, align 8, !tbaa !108
  %32 = call i32 @PMIx_Data_pack(ptr noundef null, ptr noundef %31, ptr noundef %6, i32 noundef 1, i16 noundef zeroext 12)
  store i32 %32, ptr %4, align 4, !tbaa !7
  %33 = load i32, ptr %4, align 4, !tbaa !7
  %34 = icmp ne i32 0, %33
  br i1 %34, label %35, label %49

35:                                               ; preds = %30
  br label %36

36:                                               ; preds = %35
  %37 = load i32, ptr %4, align 4, !tbaa !7
  %38 = icmp ne i32 -2, %37
  br i1 %38, label %39, label %42

39:                                               ; preds = %36
  %40 = load i32, ptr %4, align 4, !tbaa !7
  %41 = call ptr @PMIx_Error_string(i32 noundef %40)
  call void (i32, ptr, ...) @pmix_output(i32 noundef 0, ptr noundef @.str.18, ptr noundef %41, ptr noundef @.str.15, i32 noundef 395)
  br label %42

42:                                               ; preds = %39, %36
  br label %43

43:                                               ; preds = %42
  br label %44

44:                                               ; preds = %43
  br label %45

45:                                               ; preds = %44
  %46 = load ptr, ptr %3, align 8, !tbaa !108
  call void @PMIx_Data_buffer_release(ptr noundef %46)
  store ptr null, ptr %3, align 8, !tbaa !108
  br label %47

47:                                               ; preds = %45
  br label %48

48:                                               ; preds = %47
  store i32 1, ptr %7, align 4
  br label %101

49:                                               ; preds = %30
  %50 = load ptr, ptr %3, align 8, !tbaa !108
  %51 = load ptr, ptr %2, align 8, !tbaa !78
  %52 = call i32 @PMIx_Data_pack(ptr noundef null, ptr noundef %50, ptr noundef %51, i32 noundef 1, i16 noundef zeroext 22)
  store i32 %52, ptr %4, align 4, !tbaa !7
  %53 = load i32, ptr %4, align 4, !tbaa !7
  %54 = icmp ne i32 0, %53
  br i1 %54, label %55, label %69

55:                                               ; preds = %49
  br label %56

56:                                               ; preds = %55
  %57 = load i32, ptr %4, align 4, !tbaa !7
  %58 = icmp ne i32 -2, %57
  br i1 %58, label %59, label %62

59:                                               ; preds = %56
  %60 = load i32, ptr %4, align 4, !tbaa !7
  %61 = call ptr @PMIx_Error_string(i32 noundef %60)
  call void (i32, ptr, ...) @pmix_output(i32 noundef 0, ptr noundef @.str.18, ptr noundef %61, ptr noundef @.str.15, i32 noundef 403)
  br label %62

62:                                               ; preds = %59, %56
  br label %63

63:                                               ; preds = %62
  br label %64

64:                                               ; preds = %63
  br label %65

65:                                               ; preds = %64
  %66 = load ptr, ptr %3, align 8, !tbaa !108
  call void @PMIx_Data_buffer_release(ptr noundef %66)
  store ptr null, ptr %3, align 8, !tbaa !108
  br label %67

67:                                               ; preds = %65
  br label %68

68:                                               ; preds = %67
  store i32 1, ptr %7, align 4
  br label %101

69:                                               ; preds = %49
  br label %70

70:                                               ; preds = %69
  %71 = load i32, ptr @prte_rml_base, align 8, !tbaa !110
  %72 = icmp sge i32 %71, 0
  br i1 %72, label %73, label %87

73:                                               ; preds = %70
  %74 = load i32, ptr @prte_rml_base, align 8, !tbaa !110
  %75 = icmp slt i32 %74, 64
  br i1 %75, label %76, label %87

76:                                               ; preds = %73
  %77 = load i32, ptr @prte_rml_base, align 8, !tbaa !110
  %78 = sext i32 %77 to i64
  %79 = getelementptr inbounds [0 x %struct.pmix_output_desc_t], ptr @pmix_output_info, i64 0, i64 %78
  %80 = getelementptr inbounds nuw %struct.pmix_output_desc_t, ptr %79, i32 0, i32 2
  %81 = load i32, ptr %80, align 4, !tbaa !29
  %82 = icmp sge i32 %81, 2
  br i1 %82, label %83, label %87

83:                                               ; preds = %76
  %84 = load i32, ptr @prte_rml_base, align 8, !tbaa !110
  %85 = load i32, ptr getelementptr inbounds nuw (%struct.pmix_proc, ptr getelementptr inbounds nuw (%struct.pmix_server_globals_t, ptr @prte_pmix_server_globals, i32 0, i32 7), i32 0, i32 1), align 8, !tbaa !112
  %86 = call ptr @pmix_util_print_rank(i32 noundef %85)
  call void (i32, ptr, ...) @pmix_output(i32 noundef %84, ptr noundef @.str.19, ptr noundef %86, i32 noundef 27, ptr noundef @.str.15, ptr noundef @__func__.prte_state_base_notify_data_server, i32 noundef 410)
  br label %87

87:                                               ; preds = %83, %76, %73, %70
  %88 = load i32, ptr getelementptr inbounds nuw (%struct.pmix_proc, ptr getelementptr inbounds nuw (%struct.pmix_server_globals_t, ptr @prte_pmix_server_globals, i32 0, i32 7), i32 0, i32 1), align 8, !tbaa !112
  %89 = load ptr, ptr %3, align 8, !tbaa !108
  %90 = call i32 @prte_rml_send_buffer_nb(i32 noundef %88, ptr noundef %89, i32 noundef 27)
  store i32 %90, ptr %4, align 4, !tbaa !7
  br label %91

91:                                               ; preds = %87
  br label %92

92:                                               ; preds = %91
  %93 = load i32, ptr %4, align 4, !tbaa !7
  %94 = icmp ne i32 0, %93
  br i1 %94, label %95, label %100

95:                                               ; preds = %92
  br label %96

96:                                               ; preds = %95
  %97 = load ptr, ptr %3, align 8, !tbaa !108
  call void @PMIx_Data_buffer_release(ptr noundef %97)
  store ptr null, ptr %3, align 8, !tbaa !108
  br label %98

98:                                               ; preds = %96
  br label %99

99:                                               ; preds = %98
  br label %100

100:                                              ; preds = %99, %92
  store i32 0, ptr %7, align 4
  br label %101

101:                                              ; preds = %100, %68, %48, %29, %9
  call void @llvm.lifetime.end.p0(i64 1, ptr %6) #13
  call void @llvm.lifetime.end.p0(i64 4, ptr %5) #13
  call void @llvm.lifetime.end.p0(i64 4, ptr %4) #13
  call void @llvm.lifetime.end.p0(i64 8, ptr %3) #13
  %102 = load i32, ptr %7, align 4
  switch i32 %102, label %104 [
    i32 0, label %103
    i32 1, label %103
  ]

103:                                              ; preds = %101, %101
  ret void

104:                                              ; preds = %101
  unreachable
}