; Function Attrs: nounwind uwtable
define void @prte_state_base_notify_data_server(ptr noundef %0) local_unnamed_addr #0 {
  %2 = alloca i32, align 4
  %3 = alloca i8, align 1
  call void @llvm.lifetime.start.p0(i64 4, ptr nonnull %2) #14
  store i32 -1, ptr %2, align 4, !tbaa !31
  call void @llvm.lifetime.start.p0(i64 1, ptr nonnull %3) #14
  store i8 4, ptr %3, align 1, !tbaa !64
  %4 = tail call zeroext i1 @PMIx_Nspace_invalid(ptr noundef nonnull getelementptr inbounds nuw (i8, ptr @prte_pmix_server_globals, i64 344)) #14
  br i1 %4, label %26, label %5

5:                                                ; preds = %1
  %6 = tail call ptr @PMIx_Data_buffer_create() #14
  %7 = call i32 @PMIx_Data_pack(ptr noundef null, ptr noundef %6, ptr noundef nonnull %2, i32 noundef 1, i16 noundef zeroext 6) #14
  switch i32 %7, label %.sink.split.sink.split [
    i32 0, label %8
    i32 -2, label %.sink.split
  ]

8:                                                ; preds = %5
  %9 = call i32 @PMIx_Data_pack(ptr noundef null, ptr noundef %6, ptr noundef nonnull %3, i32 noundef 1, i16 noundef zeroext 12) #14
  switch i32 %9, label %.sink.split.sink.split [
    i32 0, label %10
    i32 -2, label %.sink.split
  ]

10:                                               ; preds = %8
  %11 = call i32 @PMIx_Data_pack(ptr noundef null, ptr noundef %6, ptr noundef %0, i32 noundef 1, i16 noundef zeroext 22) #14
  switch i32 %11, label %.sink.split.sink.split [
    i32 0, label %12
    i32 -2, label %.sink.split
  ]

12:                                               ; preds = %10
  %13 = load i32, ptr @prte_rml_base, align 8, !tbaa !86
  %or.cond = icmp ult i32 %13, 64
  br i1 %or.cond, label %14, label %22

14:                                               ; preds = %12
  %15 = zext nneg i32 %13 to i64
  %16 = getelementptr inbounds nuw [0 x %struct.pmix_output_desc_t], ptr @pmix_output_info, i64 0, i64 %15, i32 2
  %17 = load i32, ptr %16, align 4, !tbaa !25
  %18 = icmp sgt i32 %17, 1
  br i1 %18, label %19, label %22

19:                                               ; preds = %14
  %20 = load i32, ptr getelementptr inbounds nuw (i8, ptr @prte_pmix_server_globals, i64 600), align 8, !tbaa !88
  %21 = call ptr @pmix_util_print_rank(i32 noundef %20) #14
  call void (i32, ptr, ...) @pmix_output(i32 noundef %13, ptr noundef nonnull @.str.19, ptr noundef %21, i32 noundef 27, ptr noundef nonnull @.str.15, ptr noundef nonnull @__func__.prte_state_base_notify_data_server, i32 noundef 410) #14
  br label %22

22:                                               ; preds = %19, %14, %12
  %23 = load i32, ptr getelementptr inbounds nuw (i8, ptr @prte_pmix_server_globals, i64 600), align 8, !tbaa !88
  %24 = call i32 @prte_rml_send_buffer_nb(i32 noundef %23, ptr noundef %6, i32 noundef 27) #14
  %.not24 = icmp eq i32 %24, 0
  br i1 %.not24, label %26, label %.sink.split

.sink.split.sink.split:                           ; preds = %10, %8, %5
  %.sink29 = phi i32 [ %7, %5 ], [ %9, %8 ], [ %11, %10 ]
  %.sink28 = phi i32 [ 387, %5 ], [ 395, %8 ], [ 403, %10 ]
  %25 = call ptr @PMIx_Error_string(i32 noundef %.sink29) #14
  call void (i32, ptr, ...) @pmix_output(i32 noundef 0, ptr noundef nonnull @.str.18, ptr noundef %25, ptr noundef nonnull @.str.15, i32 noundef %.sink28) #14
  br label %.sink.split

.sink.split:                                      ; preds = %.sink.split.sink.split, %22, %10, %8, %5
  call void @PMIx_Data_buffer_release(ptr noundef %6) #14
  br label %26

26:                                               ; preds = %.sink.split, %22, %1
  call void @llvm.lifetime.end.p0(i64 1, ptr nonnull %3) #14
  call void @llvm.lifetime.end.p0(i64 4, ptr nonnull %2) #14
  ret void
}